target datalayout = "e-m:e-p270:32:32-p271:32:32-p272:64:64-i64:64-i128:128-f80:128-n8:16:32:64-S128"
target triple = "x86_64-pc-linux-gnu"

%struct.SwsLut3D = type { %struct.SwsColorMap, i8, [65 x [65 x [65 x %struct.v3u16_t]]], [129 x [129 x [65 x %struct.v3u16_t]]], [257 x %struct.v2u16_t] }
%struct.SwsColorMap = type { %struct.SwsColor, %struct.SwsColor, i32 }
%struct.SwsColor = type { i32, i32, %struct.AVPrimaryCoefficients, %struct.AVRational, %struct.AVRational, %struct.AVRational, %struct.AVRational }
%struct.AVPrimaryCoefficients = type { %struct.AVCIExy, %struct.AVCIExy, %struct.AVCIExy }
%struct.AVCIExy = type { %struct.AVRational, %struct.AVRational }
%struct.AVRational = type { i32, i32 }
%struct.v3u16_t = type { i16, i16, i16 }
%struct.v2u16_t = type { i16, i16 }

; Function Attrs: nounwind uwtable
define ptr @ff_sws_lut3d_alloc() #0 {
  %1 = alloca ptr, align 8
  %2 = alloca ptr, align 8
  %3 = alloca i32, align 4
  call void @llvm.lifetime.start.p0(i64 8, ptr %2) #5
  %4 = call noalias ptr @av_malloc(i64 noundef 8138952)
  store ptr %4, ptr %2, align 8, !tbaa !4
  %5 = load ptr, ptr %2, align 8, !tbaa !4
  %6 = icmp ne ptr %5, null
  br i1 %6, label %8, label %7

7:                                                ; preds = %0
  store ptr null, ptr %1, align 8
  store i32 1, ptr %3, align 4
  br label %12

8:                                                ; preds = %0
  %9 = load ptr, ptr %2, align 8, !tbaa !4
  %10 = getelementptr inbounds nuw %struct.SwsLut3D, ptr %9, i32 0, i32 1
  store i8 0, ptr %10, align 4, !tbaa !9
  %11 = load ptr, ptr %2, align 8, !tbaa !4
  store ptr %11, ptr %1, align 8
  store i32 1, ptr %3, align 4
  br label %12

12:                                               ; preds = %8, %7
  call void @llvm.lifetime.end.p0(i64 8, ptr %2) #5
  %13 = load ptr, ptr %1, align 8
  ret ptr %13
}