; Function Attrs: nounwind uwtable
define noalias ptr @ff_sws_lut3d_alloc() local_unnamed_addr #0 {
  %1 = tail call noalias ptr @av_malloc(i64 noundef 8138952) #5
  %.not = icmp eq ptr %1, null
  br i1 %.not, label %4, label %2

2:                                                ; preds = %0
  %3 = getelementptr inbounds nuw i8, ptr %1, i64 180
  store i8 0, ptr %3, align 4, !tbaa !4
  br label %4

4:                                                ; preds = %0, %2
  ret ptr %1
}